target datalayout = "e-m:e-p270:32:32-p271:32:32-p272:64:64-i64:64-i128:128-f80:128-n8:16:32:64-S128"
target triple = "x86_64-pc-linux-gnu"

%struct.URLContext = type { ptr, ptr, ptr, ptr, i32, i32, i32, i32, %struct.AVIOInterruptCB, i64, ptr, ptr, i32 }
%struct.AVIOInterruptCB = type { ptr, ptr }
%struct.HTTPContext = type { ptr, ptr, [8192 x i8], ptr, ptr, i32, i32, i64, i32, i64, i64, i64, ptr, ptr, %struct.HTTPAuthState, %struct.HTTPAuthState, ptr, ptr, ptr, ptr, ptr, ptr, ptr, i32, i32, i32, i32, i32, i32, ptr, i32, i32, i32, ptr, ptr, i32, i64, i64, ptr, ptr, ptr, i32, %struct.z_stream_s, ptr, ptr, i32, ptr, i32, i32, i32, i32, i32, ptr, i32, ptr, i32, i32, i32, i32, i32, i64, ptr, ptr, i64, i32, i32, i32, i32 }
%struct.HTTPAuthState = type { i32, [200 x i8], %struct.DigestParams, i32 }
%struct.DigestParams = type { [300 x i8], [10 x i8], [30 x i8], [300 x i8], [10 x i8], i32 }
%struct.z_stream_s = type { ptr, i32, i64, ptr, i32, i64, ptr, ptr, ptr, ptr, ptr, i32, i64, i64 }

@.str.120 = private unnamed_addr constant [30 x i8] c"Assertion %s failed at %s:%d\0A\00", align 1
@.str.121 = private unnamed_addr constant [11 x i8] c"sc->listen\00", align 1
@.str.122 = private unnamed_addr constant [19 x i8] c"libavformat/http.c\00", align 1

; Function Attrs: nounwind uwtable
define internal i32 @http_accept(ptr noundef %0, ptr noundef %1) #0 {
  %3 = alloca i32, align 4
  %4 = alloca ptr, align 8
  %5 = alloca ptr, align 8
  %6 = alloca i32, align 4
  %7 = alloca ptr, align 8
  %8 = alloca ptr, align 8
  %9 = alloca ptr, align 8
  %10 = alloca ptr, align 8
  %11 = alloca i32, align 4
  store ptr %0, ptr %4, align 8, !tbaa !4
  store ptr %1, ptr %5, align 8, !tbaa !65
  call void @llvm.lifetime.start.p0(i64 4, ptr %6) #11
  call void @llvm.lifetime.start.p0(i64 8, ptr %7) #11
  %12 = load ptr, ptr %4, align 8, !tbaa !4
  %13 = getelementptr inbounds nuw %struct.URLContext, ptr %12, i32 0, i32 2
  %14 = load ptr, ptr %13, align 8, !tbaa !9
  store ptr %14, ptr %7, align 8, !tbaa !21
  call void @llvm.lifetime.start.p0(i64 8, ptr %8) #11
  call void @llvm.lifetime.start.p0(i64 8, ptr %9) #11
  %15 = load ptr, ptr %7, align 8, !tbaa !21
  %16 = getelementptr inbounds nuw %struct.HTTPContext, ptr %15, i32 0, i32 1
  %17 = load ptr, ptr %16, align 8, !tbaa !44
  store ptr %17, ptr %9, align 8, !tbaa !4
  call void @llvm.lifetime.start.p0(i64 8, ptr %10) #11
  store ptr null, ptr %10, align 8, !tbaa !4
  br label %18

18:                                               ; preds = %2
  %19 = load ptr, ptr %7, align 8, !tbaa !21
  %20 = getelementptr inbounds nuw %struct.HTTPContext, ptr %19, i32 0, i32 53
  %21 = load i32, ptr %20, align 8, !tbaa !43
  %22 = icmp ne i32 %21, 0
  br i1 %22, label %24, label %23

23:                                               ; preds = %18
  call void (ptr, i32, ptr, ...) @av_log(ptr noundef null, i32 noundef 0, ptr noundef @.str.120, ptr noundef @.str.121, ptr noundef @.str.122, i32 noundef 779)
  call void @abort() #13
  unreachable

24:                                               ; preds = %18
  br label %25

25:                                               ; preds = %24
  br label %26

26:                                               ; preds = %25
  %27 = load ptr, ptr %5, align 8, !tbaa !65
  %28 = load ptr, ptr %4, align 8, !tbaa !4
  %29 = getelementptr inbounds nuw %struct.URLContext, ptr %28, i32 0, i32 3
  %30 = load ptr, ptr %29, align 8, !tbaa !67
  %31 = load ptr, ptr %4, align 8, !tbaa !4
  %32 = getelementptr inbounds nuw %struct.URLContext, ptr %31, i32 0, i32 4
  %33 = load i32, ptr %32, align 8, !tbaa !36
  %34 = load ptr, ptr %9, align 8, !tbaa !4
  %35 = getelementptr inbounds nuw %struct.URLContext, ptr %34, i32 0, i32 8
  %36 = call i32 @ffurl_alloc(ptr noundef %27, ptr noundef %30, i32 noundef %33, ptr noundef %35)
  store i32 %36, ptr %6, align 4, !tbaa !34
  %37 = icmp slt i32 %36, 0
  br i1 %37, label %38, label %39

38:                                               ; preds = %26
  br label %54

39:                                               ; preds = %26
  %40 = load ptr, ptr %5, align 8, !tbaa !65
  %41 = load ptr, ptr %40, align 8, !tbaa !4
  %42 = getelementptr inbounds nuw %struct.URLContext, ptr %41, i32 0, i32 2
  %43 = load ptr, ptr %42, align 8, !tbaa !9
  store ptr %43, ptr %8, align 8, !tbaa !21
  %44 = load ptr, ptr %9, align 8, !tbaa !4
  %45 = call i32 @ffurl_accept(ptr noundef %44, ptr noundef %10)
  store i32 %45, ptr %6, align 4, !tbaa !34
  %46 = icmp slt i32 %45, 0
  br i1 %46, label %47, label %48

47:                                               ; preds = %39
  br label %54

48:                                               ; preds = %39
  %49 = load ptr, ptr %10, align 8, !tbaa !4
  %50 = load ptr, ptr %8, align 8, !tbaa !21
  %51 = getelementptr inbounds nuw %struct.HTTPContext, ptr %50, i32 0, i32 1
  store ptr %49, ptr %51, align 8, !tbaa !44
  %52 = load ptr, ptr %8, align 8, !tbaa !21
  %53 = getelementptr inbounds nuw %struct.HTTPContext, ptr %52, i32 0, i32 56
  store i32 1, ptr %53, align 4, !tbaa !68
  store i32 0, ptr %3, align 4
  store i32 1, ptr %11, align 4
  br label %62

54:                                               ; preds = %47, %38
  %55 = load ptr, ptr %5, align 8, !tbaa !65
  %56 = icmp ne ptr %55, null
  br i1 %56, label %57, label %60

57:                                               ; preds = %54
  %58 = load ptr, ptr %5, align 8, !tbaa !65
  %59 = call i32 @ffurl_closep(ptr noundef %58)
  br label %60

60:                                               ; preds = %57, %54
  %61 = load i32, ptr %6, align 4, !tbaa !34
  store i32 %61, ptr %3, align 4
  store i32 1, ptr %11, align 4
  br label %62

62:                                               ; preds = %60, %48
  call void @llvm.lifetime.end.p0(i64 8, ptr %10) #11
  call void @llvm.lifetime.end.p0(i64 8, ptr %9) #11
  call void @llvm.lifetime.end.p0(i64 8, ptr %8) #11
  call void @llvm.lifetime.end.p0(i64 8, ptr %7) #11
  call void @llvm.lifetime.end.p0(i64 4, ptr %6) #11
  %63 = load i32, ptr %3, align 4
  ret i32 %63
}