; Function Attrs: nounwind uwtable
define internal range(i32 -2147483648, 1) i32 @http_accept(ptr noundef readonly captures(none) %0, ptr noundef %1) #2 {
  %3 = alloca ptr, align 8
  %4 = getelementptr inbounds nuw i8, ptr %0, i64 16
  %5 = load ptr, ptr %4, align 8, !tbaa !4
  %6 = getelementptr inbounds nuw i8, ptr %5, i64 8
  %7 = load ptr, ptr %6, align 8, !tbaa !37
  call void @llvm.lifetime.start.p0(i64 8, ptr nonnull %3) #15
  store ptr null, ptr %3, align 8, !tbaa !95
  %8 = getelementptr inbounds nuw i8, ptr %5, i64 10368
  %9 = load i32, ptr %8, align 8, !tbaa !36
  %.not = icmp eq i32 %9, 0
  br i1 %.not, label %10, label %11

10:                                               ; preds = %2
  tail call void (ptr, i32, ptr, ...) @av_log(ptr noundef null, i32 noundef 0, ptr noundef nonnull @.str.120, ptr noundef nonnull @.str.121, ptr noundef nonnull @.str.122, i32 noundef 779) #15
  tail call void @abort() #17
  unreachable

11:                                               ; preds = %2
  %12 = getelementptr inbounds nuw i8, ptr %0, i64 24
  %13 = load ptr, ptr %12, align 8, !tbaa !96
  %14 = getelementptr inbounds nuw i8, ptr %0, i64 32
  %15 = load i32, ptr %14, align 8, !tbaa !29
  %16 = getelementptr inbounds nuw i8, ptr %7, i64 48
  %17 = tail call i32 @ffurl_alloc(ptr noundef %1, ptr noundef %13, i32 noundef %15, ptr noundef nonnull %16) #15
  %18 = icmp slt i32 %17, 0
  br i1 %18, label %29, label %19

19:                                               ; preds = %11
  %20 = load ptr, ptr %1, align 8, !tbaa !95
  %21 = getelementptr inbounds nuw i8, ptr %20, i64 16
  %22 = load ptr, ptr %21, align 8, !tbaa !4
  %23 = call i32 @ffurl_accept(ptr noundef nonnull %7, ptr noundef nonnull %3) #15
  %24 = icmp slt i32 %23, 0
  br i1 %24, label %.thread, label %25

25:                                               ; preds = %19
  %26 = load ptr, ptr %3, align 8, !tbaa !95
  %27 = getelementptr inbounds nuw i8, ptr %22, i64 8
  store ptr %26, ptr %27, align 8, !tbaa !37
  %28 = getelementptr inbounds nuw i8, ptr %22, i64 10388
  store i32 1, ptr %28, align 4, !tbaa !97
  br label %31

29:                                               ; preds = %11
  %.not18 = icmp eq ptr %1, null
  br i1 %.not18, label %31, label %.thread

.thread:                                          ; preds = %19, %29
  %.01421 = phi i32 [ %17, %29 ], [ %23, %19 ]
  %30 = call i32 @ffurl_closep(ptr noundef nonnull %1) #15
  br label %31

31:                                               ; preds = %29, %.thread, %25
  %.0 = phi i32 [ 0, %25 ], [ %.01421, %.thread ], [ %17, %29 ]
  call void @llvm.lifetime.end.p0(i64 8, ptr nonnull %3) #15
  ret i32 %.0
}